Certificate:
    Data:
        Version: 3 (0x2)
        Serial Number: 4097 (0x1001)
    Signature Algorithm: sha1WithRSAEncryption
        Issuer: C=kr, ST=dj, L=dj, O=hb, OU=ice, CN=lsc
        Validity
            Not Before: Dec 10 09:33:09 2017 GMT
            Not After : Dec 10 09:33:09 2018 GMT
        Subject: C=kr, ST=dj, O=hb, OU=hb, CN=bob/emailAddress=l
        Subject Public Key Info:
            Public Key Algorithm: rsaEncryption
                Public-Key: (4096 bit)
                Modulus:
                    00:cb:08:d3:33:0b:68:82:bc:4f:2c:20:47:e8:d8:
                    d1:cd:06:0c:6c:c6:97:17:8c:5b:d4:b9:a4:c3:17:
                    8b:ec:16:57:4d:84:44:14:f1:9a:89:90:93:1f:8a:
                    d6:71:21:0c:0f:cb:a4:d6:9c:88:d0:9d:04:6f:c6:
                    1f:34:68:a8:a5:30:21:04:cf:61:84:8c:cf:09:c5:
                    6c:f6:cd:c1:4b:79:26:0f:9d:1f:32:bc:36:c8:41:
                    ef:89:f7:b1:b7:43:80:e5:53:33:64:62:6b:ee:c1:
                    9a:1b:47:ac:14:ac:05:0c:26:ea:c1:e7:1b:d4:46:
                    b6:08:65:f5:f8:22:72:81:0f:a6:5a:da:71:d0:9c:
                    78:42:a8:e6:4f:f8:3d:2a:21:40:da:ea:a1:98:0b:
                    7d:4a:79:50:a9:19:92:ff:44:b9:f0:c5:ff:66:a5:
                    84:dc:df:b8:f2:25:1c:86:a2:88:8e:be:c4:51:69:
                    c5:91:d4:82:c1:3d:32:16:85:45:07:57:3d:32:89:
                    57:7a:2f:46:3d:ef:a0:f4:e4:21:35:cb:10:f9:7a:
                    75:62:da:d3:e0:59:fc:37:da:77:9c:38:08:5c:ea:
                    22:70:ae:f3:61:80:02:4a:9c:ba:64:67:49:3f:ed:
                    1f:63:7a:bc:ad:24:3d:4a:5d:66:00:dd:58:4a:95:
                    bb:94:24:90:39:72:31:15:73:ca:e5:81:41:23:c7:
                    13:7c:77:a4:92:67:d5:eb:b2:79:35:72:af:c1:fb:
                    50:96:4d:ac:76:eb:89:b6:a5:6a:5a:3c:53:8f:3a:
                    bf:77:8e:7e:58:d0:6c:31:16:0c:f5:6e:fd:81:fb:
                    74:20:cd:73:ab:61:02:89:9c:ce:25:ce:8f:6e:28:
                    65:67:32:02:8e:19:dd:69:1a:27:26:c7:49:f9:64:
                    a5:cf:8c:a1:98:17:f2:a4:76:92:41:82:0c:27:ca:
                    83:03:8a:b3:f7:26:48:73:f0:d3:e7:e1:0d:eb:56:
                    81:94:c6:e5:d8:24:3a:db:6b:01:b2:d7:5d:87:e6:
                    b5:9e:35:40:ab:50:a0:d5:70:95:e9:6b:cb:9f:75:
                    a5:97:cb:c9:1d:db:97:c3:d1:d0:7c:86:07:a4:c1:
                    67:a6:a7:79:b3:4f:ee:49:b6:3d:1d:a8:b9:c6:0e:
                    74:2e:57:b7:08:6d:8b:4f:e7:01:42:99:02:02:1f:
                    13:2c:d4:02:f5:09:44:86:14:d0:5f:ed:d3:69:bd:
                    2e:ce:23:62:22:43:fa:71:45:78:e9:d1:46:4c:52:
                    ef:6f:1a:ab:f6:0c:87:2c:16:43:a6:77:5f:d1:05:
                    b3:43:4f:79:14:bf:bc:7c:f0:ab:f6:0f:84:28:35:
                    13:47:3d
                Exponent: 65537 (0x10001)
        X509v3 extensions:
            X509v3 Basic Constraints: 
                CA:FALSE
            Netscape Comment: 
                OpenSSL Generated Certificate
            X509v3 Subject Key Identifier: 
                4A:DC:5C:28:5C:01:43:1F:DC:18:E4:4E:D7:DD:BE:CA:5D:E2:27:EE
            X509v3 Authority Key Identifier: 
                keyid:32:CE:4C:94:DA:8C:43:33:57:78:72:31:F5:F1:74:D3:97:26:13:24

    Signature Algorithm: sha1WithRSAEncryption
         69:0b:0b:0d:27:c3:e4:44:d3:33:19:36:2b:51:7a:90:d5:a3:
         2c:9b:0b:00:ff:0c:d0:d9:7e:90:87:82:cc:30:5d:1c:b2:1d:
         4a:6a:5c:fe:54:98:ca:36:b5:db:25:68:17:94:dd:52:cf:0e:
         ed:e5:06:58:0d:57:48:5a:04:16:c1:aa:85:48:93:4e:ef:37:
         6b:fb:4f:d1:9d:f7:ec:b1:01:fa:9b:bf:d9:a6:bc:95:d8:3a:
         fc:85:2b:a1:fa:6f:04:61:5c:4a:b9:33:60:67:64:d6:c6:a8:
         d8:9a:6f:7f:26:32:87:d6:1a:24:f8:de:bf:dd:f9:20:d5:8c:
         db:8b:80:8c:1f:a2:80:98:5f:8a:96:49:1d:83:48:d5:e4:78:
         74:e9:a5:6f:cb:2e:b0:b7:4a:6c:c7:d7:d6:b0:23:c6:45:17:
         2a:75:40:61:3f:c7:93:fe:56:09:fc:40:f5:4d:9f:ec:62:5c:
         2a:12:62:9e:45:eb:db:71:0c:4d:2f:0a:cd:76:02:7d:8f:37:
         1f:83:a6:d0:e6:52:62:3a:c2:e0:0c:7d:0c:7b:8b:21:92:6f:
         4d:76:5d:38:b5:c4:c1:6c:ab:2b:bb:ed:6d:b4:a2:1a:be:03:
         c5:06:bc:ab:9a:4d:77:74:06:ac:ae:33:98:67:ef:f8:6d:22:
         7e:a6:bc:0c:0a:3e:0b:1a:b6:7e:61:32:45:b5:40:7a:fc:16:
         a1:da:e4:61:ff:5e:c1:cc:e2:e5:d5:ce:e5:18:8a:c3:78:85:
         24:57:fd:55:01:3a:69:03:f9:be:a2:fa:8f:41:13:af:4f:6c:
         a4:db:e2:fd:54:69:70:9b:ce:95:49:ee:c7:3b:9c:2f:e5:81:
         a5:f1:37:27:43:ce:d6:a4:d2:e8:a9:38:67:98:6c:e7:6f:2e:
         8d:33:5e:24:c8:2c:79:06:b6:c4:0d:ac:b5:60:f6:f1:e7:85:
         33:92:01:f1:a2:40:ab:ac:d2:01:ef:3a:9f:49:c8:bb:5e:88:
         e6:f7:7e:25:07:24:87:37:0f:7a:50:30:eb:71:bd:f3:a8:c7:
         e0:2e:c0:d2:43:41:18:a8:d5:ed:a0:7e:8e:34:3a:a2:cd:d0:
         8d:6a:b2:9b:2a:51:ee:28:54:24:04:aa:b9:8d:44:bc:2a:ec:
         e3:7f:e2:5a:34:70:fa:c8:29:1a:7c:b3:85:cb:34:f7:69:02:
         65:fd:dd:b2:3b:aa:56:38:d6:cf:b3:4a:4d:f4:b1:db:73:f1:
         ee:d0:08:e9:2d:32:3b:79:34:6a:31:08:47:c9:11:f8:36:88:
         56:1f:77:65:0a:f1:84:d5:89:bf:cb:53:d6:42:6b:db:4c:bf:
         75:ba:04:85:4e:a1:e2:34
-----BEGIN CERTIFICATE-----
MIIFmzCCA4OgAwIBAgICEAEwDQYJKoZIhvcNAQEFBQAwUDELMAkGA1UEBhMCa3Ix
CzAJBgNVBAgMAmRqMQswCQYDVQQHDAJkajELMAkGA1UECgwCaGIxDDAKBgNVBAsM
A2ljZTEMMAoGA1UEAwwDbHNjMB4XDTE3MTIxMDA5MzMwOVoXDTE4MTIxMDA5MzMw
OVowVDELMAkGA1UEBhMCa3IxCzAJBgNVBAgMAmRqMQswCQYDVQQKDAJoYjELMAkG
A1UECwwCaGIxDDAKBgNVBAMMA2JvYjEQMA4GCSqGSIb3DQEJARYBbDCCAiIwDQYJ
KoZIhvcNAQEBBQADggIPADCCAgoCggIBAMsI0zMLaIK8TywgR+jY0c0GDGzGlxeM
W9S5pMMXi+wWV02ERBTxmomQkx+K1nEhDA/LpNaciNCdBG/GHzRoqKUwIQTPYYSM
zwnFbPbNwUt5Jg+dHzK8NshB74n3sbdDgOVTM2Ria+7BmhtHrBSsBQwm6sHnG9RG
tghl9fgicoEPplracdCceEKo5k/4PSohQNrqoZgLfUp5UKkZkv9EufDF/2alhNzf
uPIlHIaiiI6+xFFpxZHUgsE9MhaFRQdXPTKJV3ovRj3voPTkITXLEPl6dWLa0+BZ
/Dfad5w4CFzqInCu82GAAkqcumRnST/tH2N6vK0kPUpdZgDdWEqVu5QkkDlyMRVz
yuWBQSPHE3x3pJJn1euyeTVyr8H7UJZNrHbribalalo8U486v3eOfljQbDEWDPVu
/YH7dCDNc6thAomcziXOj24oZWcyAo4Z3WkaJybHSflkpc+MoZgX8qR2kkGCDCfK
gwOKs/cmSHPw0+fhDetWgZTG5dgkOttrAbLXXYfmtZ41QKtQoNVwlelry591pZfL
yR3bl8PR0HyGB6TBZ6anebNP7km2PR2oucYOdC5Xtwhti0/nAUKZAgIfEyzUAvUJ
RIYU0F/t02m9Ls4jYiJD+nFFeOnRRkxS728aq/YMhywWQ6Z3X9EFs0NPeRS/vHzw
q/YPhCg1E0c9AgMBAAGjezB5MAkGA1UdEwQCMAAwLAYJYIZIAYb4QgENBB8WHU9w
ZW5TU0wgR2VuZXJhdGVkIENlcnRpZmljYXRlMB0GA1UdDgQWBBRK3FwoXAFDH9wY
5E7X3b7KXeIn7jAfBgNVHSMEGDAWgBQyzkyU2oxDM1d4cjH18XTTlyYTJDANBgkq
hkiG9w0BAQUFAAOCAgEAaQsLDSfD5ETTMxk2K1F6kNWjLJsLAP8M0Nl+kIeCzDBd
HLIdSmpc/lSYyja12yVoF5TdUs8O7eUGWA1XSFoEFsGqhUiTTu83a/tP0Z337LEB
+pu/2aa8ldg6/IUrofpvBGFcSrkzYGdk1sao2JpvfyYyh9YaJPjev935INWM24uA
jB+igJhfipZJHYNI1eR4dOmlb8susLdKbMfX1rAjxkUXKnVAYT/Hk/5WCfxA9U2f
7GJcKhJinkXr23EMTS8KzXYCfY83H4Om0OZSYjrC4Ax9DHuLIZJvTXZdOLXEwWyr
K7vtbbSiGr4DxQa8q5pNd3QGrK4zmGfv+G0ifqa8DAo+Cxq2fmEyRbVAevwWodrk
Yf9ewczi5dXO5RiKw3iFJFf9VQE6aQP5vqL6j0ETr09spNvi/VRpcJvOlUnuxzuc
L+WBpfE3J0PO1qTS6Kk4Z5hs528ujTNeJMgseQa2xA2stWD28eeFM5IB8aJAq6zS
Ae86n0nIu16I5vd+JQckhzcPelAw63G986jH4C7A0kNBGKjV7aB+jjQ6os3QjWqy
mypR7ihUJASquY1EvCrs43/iWjRw+sgpGnyzhcs092kCZf3dsjuqVjjWz7NKTfSx
23Px7tAI6S0yO3k0ajEIR8kR+DaIVh93ZQrxhNWJv8tT1kJr20y/dboEhU6h4jQ=
-----END CERTIFICATE-----
